; Function Attrs: null_pointer_is_valid sspstrong uwtable
define internal range(i32 -2147483648, 11) i32 @dissect_dlr_last_active_node_on_port_1(ptr noundef %0, ptr noundef %1, ptr noundef %2, ptr noundef %3, i32 noundef %4, i32 noundef %5) #0 {
  %7 = icmp slt i32 %5, 10
  br i1 %7, label %8, label %10

8:                                                ; preds = %6
  %9 = tail call ptr @expert_add_info(ptr noundef %0, ptr noundef %2, ptr noundef nonnull @ei_mal_dlr_last_active_node_on_port_1)
  br label %16

10:                                               ; preds = %6
  %11 = load i32, ptr @hf_dlr_lanp1_dev_ip_addr, align 4
  %12 = tail call ptr @proto_tree_add_item(ptr noundef %1, i32 noundef %11, ptr noundef %3, i32 noundef %4, i32 noundef 4, i32 noundef -2147483648)
  %13 = load i32, ptr @hf_dlr_lanp1_dev_physical_address, align 4
  %14 = add i32 %4, 4
  %15 = tail call ptr @proto_tree_add_item(ptr noundef %1, i32 noundef %13, ptr noundef %3, i32 noundef %14, i32 noundef 6, i32 noundef 0)
  br label %16

16:                                               ; preds = %10, %8
  %.0 = phi i32 [ %5, %8 ], [ 10, %10 ]
  ret i32 %.0
}